target datalayout = "e-m:e-p270:32:32-p271:32:32-p272:64:64-i64:64-i128:128-f80:128-n8:16:32:64-S128"
target triple = "x86_64-pc-linux-gnu"

%struct.TM_FailureData = type { %struct.ItemPointerData, i32, i32, i8 }
%struct.ItemPointerData = type { %struct.BlockIdData, i16 }
%struct.BlockIdData = type { i16, i16 }

@.str.2 = private unnamed_addr constant [18 x i8] c"execReplication.c\00", align 1
@.str.12 = private unnamed_addr constant [93 x i8] c"tuple to be locked was already moved to another partition due to concurrent update, retrying\00", align 1
@__func__.should_refetch_tuple = private unnamed_addr constant [21 x i8] c"should_refetch_tuple\00", align 1
@.str.13 = private unnamed_addr constant [28 x i8] c"concurrent update, retrying\00", align 1
@.str.14 = private unnamed_addr constant [28 x i8] c"concurrent delete, retrying\00", align 1
@.str.15 = private unnamed_addr constant [34 x i8] c"attempted to lock invisible tuple\00", align 1
@.str.16 = private unnamed_addr constant [39 x i8] c"unexpected table_tuple_lock status: %u\00", align 1

; Function Attrs: inlinehint nounwind uwtable
define internal i32 @BlockIdGetBlockNumber(ptr noundef %0) #3 {
  %2 = alloca ptr, align 8
  store ptr %0, ptr %2, align 8
  %3 = load ptr, ptr %2, align 8
  %4 = getelementptr inbounds nuw %struct.BlockIdData, ptr %3, i32 0, i32 0
  %5 = load i16, ptr %4, align 2
  %6 = zext i16 %5 to i32
  %7 = shl i32 %6, 16
  %8 = load ptr, ptr %2, align 8
  %9 = getelementptr inbounds nuw %struct.BlockIdData, ptr %8, i32 0, i32 1
  %10 = load i16, ptr %9, align 2
  %11 = zext i16 %10 to i32
  %12 = or i32 %7, %11
  ret i32 %12
}

; Function Attrs: inlinehint nounwind uwtable
define internal zeroext i16 @ItemPointerGetOffsetNumberNoCheck(ptr noundef %0) #3 {
  %2 = alloca ptr, align 8
  store ptr %0, ptr %2, align 8
  %3 = load ptr, ptr %2, align 8
  %4 = getelementptr inbounds nuw %struct.ItemPointerData, ptr %3, i32 0, i32 1
  %5 = load i16, ptr %4, align 2
  ret i16 %5
}

; Function Attrs: inlinehint nounwind uwtable
define internal i32 @ItemPointerGetBlockNumberNoCheck(ptr noundef %0) #3 {
  %2 = alloca ptr, align 8
  store ptr %0, ptr %2, align 8
  %3 = load ptr, ptr %2, align 8
  %4 = getelementptr inbounds nuw %struct.ItemPointerData, ptr %3, i32 0, i32 0
  %5 = call i32 @BlockIdGetBlockNumber(ptr noundef %4)
  ret i32 %5
}

; Function Attrs: inlinehint nounwind uwtable
define internal zeroext i16 @ItemPointerGetOffsetNumber(ptr noundef %0) #3 {
  %2 = alloca ptr, align 8
  store ptr %0, ptr %2, align 8
  %3 = load ptr, ptr %2, align 8
  %4 = call zeroext i16 @ItemPointerGetOffsetNumberNoCheck(ptr noundef %3)
  ret i16 %4
}

; Function Attrs: inlinehint nounwind uwtable
define internal zeroext i1 @ItemPointerIndicatesMovedPartitions(ptr noundef %0) #3 {
  %2 = alloca ptr, align 8
  store ptr %0, ptr %2, align 8
  %3 = load ptr, ptr %2, align 8
  %4 = call zeroext i16 @ItemPointerGetOffsetNumber(ptr noundef %3)
  %5 = zext i16 %4 to i32
  %6 = icmp eq i32 %5, 65533
  br i1 %6, label %7, label %11

7:                                                ; preds = %1
  %8 = load ptr, ptr %2, align 8
  %9 = call i32 @ItemPointerGetBlockNumberNoCheck(ptr noundef %8)
  %10 = icmp eq i32 %9, -1
  br label %11

11:                                               ; preds = %7, %1
  %12 = phi i1 [ false, %1 ], [ %10, %7 ]
  ret i1 %12
}

; Function Attrs: nounwind uwtable
define internal zeroext i1 @should_refetch_tuple(i32 noundef %0, ptr noundef %1) #0 {
  %3 = alloca i32, align 4
  %4 = alloca ptr, align 8
  %5 = alloca i8, align 1
  store i32 %0, ptr %3, align 4
  store ptr %1, ptr %4, align 8
  call void @llvm.lifetime.start.p0(i64 1, ptr %5) #7
  store i8 0, ptr %5, align 1
  %6 = load i32, ptr %3, align 4
  switch i32 %6, label %59 [
    i32 0, label %71
    i32 3, label %7
    i32 4, label %36
    i32 1, label %48
  ]

7:                                                ; preds = %2
  %8 = load ptr, ptr %4, align 8
  %9 = getelementptr inbounds nuw %struct.TM_FailureData, ptr %8, i32 0, i32 0
  %10 = call zeroext i1 @ItemPointerIndicatesMovedPartitions(ptr noundef %9)
  br i1 %10, label %11, label %23

11:                                               ; preds = %7
  br label %12

12:                                               ; preds = %11
  br i1 false, label %13, label %15

13:                                               ; preds = %12
  %14 = call zeroext i1 @errstart_cold(i32 noundef 15, ptr noundef null) #8
  br i1 %14, label %17, label %20

15:                                               ; preds = %12
  %16 = call zeroext i1 @errstart(i32 noundef 15, ptr noundef null)
  br i1 %16, label %17, label %20

17:                                               ; preds = %15, %13
  %18 = call i32 @errcode(i32 noundef 16777220)
  %19 = call i32 (ptr, ...) @errmsg(ptr noundef @.str.12)
  call void @errfinish(ptr noundef @.str.2, i32 noundef 147, ptr noundef @__func__.should_refetch_tuple)
  br label %20

20:                                               ; preds = %17, %15, %13
  br label %21

21:                                               ; preds = %20
  br label %22

22:                                               ; preds = %21
  br label %35

23:                                               ; preds = %7
  br label %24

24:                                               ; preds = %23
  br i1 false, label %25, label %27

25:                                               ; preds = %24
  %26 = call zeroext i1 @errstart_cold(i32 noundef 15, ptr noundef null) #8
  br i1 %26, label %29, label %32

27:                                               ; preds = %24
  %28 = call zeroext i1 @errstart(i32 noundef 15, ptr noundef null)
  br i1 %28, label %29, label %32

29:                                               ; preds = %27, %25
  %30 = call i32 @errcode(i32 noundef 16777220)
  %31 = call i32 (ptr, ...) @errmsg(ptr noundef @.str.13)
  call void @errfinish(ptr noundef @.str.2, i32 noundef 151, ptr noundef @__func__.should_refetch_tuple)
  br label %32

32:                                               ; preds = %29, %27, %25
  br label %33

33:                                               ; preds = %32
  br label %34

34:                                               ; preds = %33
  br label %35

35:                                               ; preds = %34, %22
  store i8 1, ptr %5, align 1
  br label %71

36:                                               ; preds = %2
  br label %37

37:                                               ; preds = %36
  br i1 false, label %38, label %40

38:                                               ; preds = %37
  %39 = call zeroext i1 @errstart_cold(i32 noundef 15, ptr noundef null) #8
  br i1 %39, label %42, label %45

40:                                               ; preds = %37
  %41 = call zeroext i1 @errstart(i32 noundef 15, ptr noundef null)
  br i1 %41, label %42, label %45

42:                                               ; preds = %40, %38
  %43 = call i32 @errcode(i32 noundef 16777220)
  %44 = call i32 (ptr, ...) @errmsg(ptr noundef @.str.14)
  call void @errfinish(ptr noundef @.str.2, i32 noundef 158, ptr noundef @__func__.should_refetch_tuple)
  br label %45

45:                                               ; preds = %42, %40, %38
  br label %46

46:                                               ; preds = %45
  br label %47

47:                                               ; preds = %46
  store i8 1, ptr %5, align 1
  br label %71

48:                                               ; preds = %2
  br label %49

49:                                               ; preds = %48
  br i1 true, label %50, label %52

50:                                               ; preds = %49
  %51 = call zeroext i1 @errstart_cold(i32 noundef 21, ptr noundef null) #8
  br i1 %51, label %54, label %56

52:                                               ; preds = %49
  %53 = call zeroext i1 @errstart(i32 noundef 21, ptr noundef null)
  br i1 %53, label %54, label %56

54:                                               ; preds = %52, %50
  %55 = call i32 (ptr, ...) @errmsg_internal(ptr noundef @.str.15)
  call void @errfinish(ptr noundef @.str.2, i32 noundef 162, ptr noundef @__func__.should_refetch_tuple)
  br label %56

56:                                               ; preds = %54, %52, %50
  unreachable

57:                                               ; No predecessors!
  br label %58

58:                                               ; preds = %57
  br label %71

59:                                               ; preds = %2
  br label %60

60:                                               ; preds = %59
  br i1 true, label %61, label %63

61:                                               ; preds = %60
  %62 = call zeroext i1 @errstart_cold(i32 noundef 21, ptr noundef null) #8
  br i1 %62, label %65, label %68

63:                                               ; preds = %60
  %64 = call zeroext i1 @errstart(i32 noundef 21, ptr noundef null)
  br i1 %64, label %65, label %68

65:                                               ; preds = %63, %61
  %66 = load i32, ptr %3, align 4
  %67 = call i32 (ptr, ...) @errmsg_internal(ptr noundef @.str.16, i32 noundef %66)
  call void @errfinish(ptr noundef @.str.2, i32 noundef 165, ptr noundef @__func__.should_refetch_tuple)
  br label %68

68:                                               ; preds = %65, %63, %61
  unreachable

69:                                               ; No predecessors!
  br label %70

70:                                               ; preds = %69
  br label %71

71:                                               ; preds = %70, %58, %47, %35, %2
  %72 = load i8, ptr %5, align 1, !range !4, !noundef !5
  %73 = trunc i8 %72 to i1
  call void @llvm.lifetime.end.p0(i64 1, ptr %5) #7
  ret i1 %73
}