; Function Attrs: nounwind uwtable
define internal fastcc noundef zeroext i1 @should_refetch_tuple(i32 noundef %0, ptr noundef nonnull readonly captures(none) %1) unnamed_addr #0 {
  switch i32 %0, label %20 [
    i32 0, label %25
    i32 3, label %3
    i32 4, label %15
    i32 1, label %17
  ]

3:                                                ; preds = %2
  %4 = getelementptr i8, ptr %1, i64 4
  %.val.i = load i16, ptr %4, align 2
  %5 = icmp eq i16 %.val.i, -3
  br i1 %5, label %ItemPointerIndicatesMovedPartitions.exit, label %ItemPointerIndicatesMovedPartitions.exit.thread

ItemPointerIndicatesMovedPartitions.exit:         ; preds = %3
  %.val2.i = load i16, ptr %1, align 2
  %6 = getelementptr i8, ptr %1, i64 2
  %.val3.i = load i16, ptr %6, align 2
  %7 = zext i16 %.val2.i to i32
  %8 = shl nuw i32 %7, 16
  %9 = zext i16 %.val3.i to i32
  %10 = or disjoint i32 %8, %9
  %11 = icmp eq i32 %10, -1
  br i1 %11, label %12, label %ItemPointerIndicatesMovedPartitions.exit.thread

12:                                               ; preds = %ItemPointerIndicatesMovedPartitions.exit
  %13 = tail call zeroext i1 @errstart(i32 noundef 15, ptr noundef null) #5
  br i1 %13, label %.sink.split, label %25

ItemPointerIndicatesMovedPartitions.exit.thread:  ; preds = %3, %ItemPointerIndicatesMovedPartitions.exit
  %14 = tail call zeroext i1 @errstart(i32 noundef 15, ptr noundef null) #5
  br i1 %14, label %.sink.split, label %25

15:                                               ; preds = %2
  %16 = tail call zeroext i1 @errstart(i32 noundef 15, ptr noundef null) #5
  br i1 %16, label %.sink.split, label %25

17:                                               ; preds = %2
  %18 = tail call zeroext i1 @errstart_cold(i32 noundef 21, ptr noundef null) #6
  tail call void @llvm.assume(i1 %18)
  %19 = tail call i32 (ptr, ...) @errmsg_internal(ptr noundef nonnull @.str.15) #5
  tail call void @errfinish(ptr noundef nonnull @.str.2, i32 noundef 162, ptr noundef nonnull @__func__.should_refetch_tuple) #5
  unreachable

20:                                               ; preds = %2
  %21 = tail call zeroext i1 @errstart_cold(i32 noundef 21, ptr noundef null) #6
  tail call void @llvm.assume(i1 %21)
  %22 = tail call i32 (ptr, ...) @errmsg_internal(ptr noundef nonnull @.str.16, i32 noundef %0) #5
  tail call void @errfinish(ptr noundef nonnull @.str.2, i32 noundef 165, ptr noundef nonnull @__func__.should_refetch_tuple) #5
  unreachable

.sink.split:                                      ; preds = %15, %ItemPointerIndicatesMovedPartitions.exit.thread, %12
  %.str.14.sink = phi ptr [ @.str.12, %12 ], [ @.str.13, %ItemPointerIndicatesMovedPartitions.exit.thread ], [ @.str.14, %15 ]
  %.sink = phi i32 [ 147, %12 ], [ 151, %ItemPointerIndicatesMovedPartitions.exit.thread ], [ 158, %15 ]
  %23 = tail call i32 @errcode(i32 noundef 16777220) #5
  %24 = tail call i32 (ptr, ...) @errmsg(ptr noundef nonnull %.str.14.sink) #5
  tail call void @errfinish(ptr noundef nonnull @.str.2, i32 noundef %.sink, ptr noundef nonnull @__func__.should_refetch_tuple) #5
  br label %25

25:                                               ; preds = %.sink.split, %15, %12, %ItemPointerIndicatesMovedPartitions.exit.thread, %2
  %.0 = phi i1 [ false, %2 ], [ true, %ItemPointerIndicatesMovedPartitions.exit.thread ], [ true, %12 ], [ true, %15 ], [ true, %.sink.split ]
  ret i1 %.0
}